target datalayout = "e-m:e-p270:32:32-p271:32:32-p272:64:64-i64:64-i128:128-f80:128-n8:16:32:64-S128"
target triple = "x86_64-pc-linux-gnu"

%"class.YAML::Stream" = type { ptr, %"struct.YAML::Mark", i32, i8, %"class.std::deque", ptr, i64, i64 }
%"struct.YAML::Mark" = type { i32, i32, i32 }
%"class.std::deque" = type { %"class.std::_Deque_base" }
%"class.std::_Deque_base" = type { %"struct.std::_Deque_base<char, std::allocator<char>>::_Deque_impl" }
%"struct.std::_Deque_base<char, std::allocator<char>>::_Deque_impl" = type { %"struct.std::_Deque_base<char, std::allocator<char>>::_Deque_impl_data" }
%"struct.std::_Deque_base<char, std::allocator<char>>::_Deque_impl_data" = type { ptr, i64, %"struct.std::_Deque_iterator", %"struct.std::_Deque_iterator" }
%"struct.std::_Deque_iterator" = type { ptr, ptr, ptr, ptr }
%"class.std::ios_base" = type { ptr, i64, i64, i32, i32, i32, ptr, %"struct.std::ios_base::_Words", [8 x %"struct.std::ios_base::_Words"], i32, ptr, %"class.std::locale" }
%"struct.std::ios_base::_Words" = type { ptr, i64 }
%"class.std::locale" = type { ptr }

; Function Attrs: mustprogress nounwind uwtable
define linkonce_odr void @_ZNSt15__new_allocatorIcE9constructIcJcEEEvPT_DpOT0_(ptr noundef nonnull align 1 dereferenceable(1) %0, ptr noundef %1, ptr noundef nonnull align 1 dereferenceable(1) %2) #1 comdat align 2 {
  %4 = alloca ptr, align 8
  %5 = alloca ptr, align 8
  %6 = alloca ptr, align 8
  store ptr %0, ptr %4, align 8, !tbaa !98
  store ptr %1, ptr %5, align 8, !tbaa !68
  store ptr %2, ptr %6, align 8, !tbaa !68
  %7 = load ptr, ptr %5, align 8, !tbaa !68
  %8 = load ptr, ptr %6, align 8, !tbaa !68
  %9 = load i8, ptr %8, align 1, !tbaa !39
  store i8 %9, ptr %7, align 1, !tbaa !39
  ret void
}

; Function Attrs: inlinehint mustprogress nounwind uwtable
define linkonce_odr noundef i64 @_ZSt16__deque_buf_sizem(i64 noundef %0) #6 comdat {
  %2 = alloca i64, align 8
  store i64 %0, ptr %2, align 8, !tbaa !54
  %3 = load i64, ptr %2, align 8, !tbaa !54
  %4 = icmp ult i64 %3, 512
  br i1 %4, label %5, label %8

5:                                                ; preds = %1
  %6 = load i64, ptr %2, align 8, !tbaa !54
  %7 = udiv i64 512, %6
  br label %9

8:                                                ; preds = %1
  br label %9

9:                                                ; preds = %8, %5
  %10 = phi i64 [ %7, %5 ], [ 1, %8 ]
  ret i64 %10
}

; Function Attrs: mustprogress nounwind uwtable
define linkonce_odr void @_ZNSt16allocator_traitsISaIcEE9constructIcJcEEEvRS0_PT_DpOT0_(ptr noundef nonnull align 1 dereferenceable(1) %0, ptr noundef %1, ptr noundef nonnull align 1 dereferenceable(1) %2) #1 comdat align 2 {
  %4 = alloca ptr, align 8
  %5 = alloca ptr, align 8
  %6 = alloca ptr, align 8
  store ptr %0, ptr %4, align 8, !tbaa !113
  store ptr %1, ptr %5, align 8, !tbaa !68
  store ptr %2, ptr %6, align 8, !tbaa !68
  %7 = load ptr, ptr %4, align 8, !tbaa !113
  %8 = load ptr, ptr %5, align 8, !tbaa !68
  %9 = load ptr, ptr %6, align 8, !tbaa !68
  call void @_ZNSt15__new_allocatorIcE9constructIcJcEEEvPT_DpOT0_(ptr noundef nonnull align 1 dereferenceable(1) %7, ptr noundef %8, ptr noundef nonnull align 1 dereferenceable(1) %9) #15
  ret void
}

; Function Attrs: mustprogress nounwind uwtable
define linkonce_odr noundef i64 @_ZNSt15_Deque_iteratorIcRcPcE14_S_buffer_sizeEv() #1 comdat align 2 {
  %1 = call noundef i64 @_ZSt16__deque_buf_sizem(i64 noundef 1)
  ret i64 %1
}

; Function Attrs: mustprogress uwtable
define linkonce_odr void @_ZNSt5dequeIcSaIcEE12emplace_backIJcEEEvDpOT_(ptr noundef nonnull align 8 dereferenceable(80) %0, ptr noundef nonnull align 1 dereferenceable(1) %1) #0 comdat align 2 {
  %3 = alloca ptr, align 8
  %4 = alloca ptr, align 8
  store ptr %0, ptr %3, align 8, !tbaa !48
  store ptr %1, ptr %4, align 8, !tbaa !68
  %5 = load ptr, ptr %3, align 8
  %6 = getelementptr inbounds nuw %"class.std::_Deque_base", ptr %5, i32 0, i32 0
  %7 = getelementptr inbounds nuw %"struct.std::_Deque_base<char, std::allocator<char>>::_Deque_impl_data", ptr %6, i32 0, i32 3
  %8 = getelementptr inbounds nuw %"struct.std::_Deque_iterator", ptr %7, i32 0, i32 0
  %9 = load ptr, ptr %8, align 8, !tbaa !95
  %10 = getelementptr inbounds nuw %"class.std::_Deque_base", ptr %5, i32 0, i32 0
  %11 = getelementptr inbounds nuw %"struct.std::_Deque_base<char, std::allocator<char>>::_Deque_impl_data", ptr %10, i32 0, i32 3
  %12 = getelementptr inbounds nuw %"struct.std::_Deque_iterator", ptr %11, i32 0, i32 2
  %13 = load ptr, ptr %12, align 8, !tbaa !121
  %14 = getelementptr inbounds i8, ptr %13, i64 -1
  %15 = icmp ne ptr %9, %14
  br i1 %15, label %16, label %28

16:                                               ; preds = %2
  %17 = getelementptr inbounds nuw %"class.std::_Deque_base", ptr %5, i32 0, i32 0
  %18 = getelementptr inbounds nuw %"class.std::_Deque_base", ptr %5, i32 0, i32 0
  %19 = getelementptr inbounds nuw %"struct.std::_Deque_base<char, std::allocator<char>>::_Deque_impl_data", ptr %18, i32 0, i32 3
  %20 = getelementptr inbounds nuw %"struct.std::_Deque_iterator", ptr %19, i32 0, i32 0
  %21 = load ptr, ptr %20, align 8, !tbaa !95
  %22 = load ptr, ptr %4, align 8, !tbaa !68
  call void @_ZNSt16allocator_traitsISaIcEE9constructIcJcEEEvRS0_PT_DpOT0_(ptr noundef nonnull align 1 dereferenceable(1) %17, ptr noundef %21, ptr noundef nonnull align 1 dereferenceable(1) %22) #15
  %23 = getelementptr inbounds nuw %"class.std::_Deque_base", ptr %5, i32 0, i32 0
  %24 = getelementptr inbounds nuw %"struct.std::_Deque_base<char, std::allocator<char>>::_Deque_impl_data", ptr %23, i32 0, i32 3
  %25 = getelementptr inbounds nuw %"struct.std::_Deque_iterator", ptr %24, i32 0, i32 0
  %26 = load ptr, ptr %25, align 8, !tbaa !95
  %27 = getelementptr inbounds nuw i8, ptr %26, i32 1
  store ptr %27, ptr %25, align 8, !tbaa !95
  br label %30

28:                                               ; preds = %2
  %29 = load ptr, ptr %4, align 8, !tbaa !68
  call void @_ZNSt5dequeIcSaIcEE16_M_push_back_auxIJcEEEvDpOT_(ptr noundef nonnull align 8 dereferenceable(80) %5, ptr noundef nonnull align 1 dereferenceable(1) %29)
  br label %30

30:                                               ; preds = %28, %16
  ret void
}

; Function Attrs: mustprogress nounwind uwtable
define linkonce_odr noundef i64 @_ZStmiRKSt15_Deque_iteratorIcRcPcES4_(ptr noundef nonnull align 8 dereferenceable(32) %0, ptr noundef nonnull align 8 dereferenceable(32) %1) #1 comdat {
  %3 = alloca ptr, align 8
  %4 = alloca ptr, align 8
  store ptr %0, ptr %3, align 8, !tbaa !100
  store ptr %1, ptr %4, align 8, !tbaa !100
  %5 = call noundef i64 @_ZNSt15_Deque_iteratorIcRcPcE14_S_buffer_sizeEv() #15
  %6 = load ptr, ptr %3, align 8, !tbaa !100
  %7 = getelementptr inbounds nuw %"struct.std::_Deque_iterator", ptr %6, i32 0, i32 3
  %8 = load ptr, ptr %7, align 8, !tbaa !105
  %9 = load ptr, ptr %4, align 8, !tbaa !100
  %10 = getelementptr inbounds nuw %"struct.std::_Deque_iterator", ptr %9, i32 0, i32 3
  %11 = load ptr, ptr %10, align 8, !tbaa !105
  %12 = ptrtoint ptr %8 to i64
  %13 = ptrtoint ptr %11 to i64
  %14 = sub i64 %12, %13
  %15 = sdiv exact i64 %14, 8
  %16 = load ptr, ptr %3, align 8, !tbaa !100
  %17 = getelementptr inbounds nuw %"struct.std::_Deque_iterator", ptr %16, i32 0, i32 3
  %18 = load ptr, ptr %17, align 8, !tbaa !105
  %19 = icmp ne ptr %18, null
  %20 = zext i1 %19 to i64
  %21 = sub nsw i64 %15, %20
  %22 = mul nsw i64 %5, %21
  %23 = load ptr, ptr %3, align 8, !tbaa !100
  %24 = getelementptr inbounds nuw %"struct.std::_Deque_iterator", ptr %23, i32 0, i32 0
  %25 = load ptr, ptr %24, align 8, !tbaa !102
  %26 = load ptr, ptr %3, align 8, !tbaa !100
  %27 = getelementptr inbounds nuw %"struct.std::_Deque_iterator", ptr %26, i32 0, i32 1
  %28 = load ptr, ptr %27, align 8, !tbaa !103
  %29 = ptrtoint ptr %25 to i64
  %30 = ptrtoint ptr %28 to i64
  %31 = sub i64 %29, %30
  %32 = add nsw i64 %22, %31
  %33 = load ptr, ptr %4, align 8, !tbaa !100
  %34 = getelementptr inbounds nuw %"struct.std::_Deque_iterator", ptr %33, i32 0, i32 2
  %35 = load ptr, ptr %34, align 8, !tbaa !104
  %36 = load ptr, ptr %4, align 8, !tbaa !100
  %37 = getelementptr inbounds nuw %"struct.std::_Deque_iterator", ptr %36, i32 0, i32 0
  %38 = load ptr, ptr %37, align 8, !tbaa !102
  %39 = ptrtoint ptr %35 to i64
  %40 = ptrtoint ptr %38 to i64
  %41 = sub i64 %39, %40
  %42 = add nsw i64 %32, %41
  ret i64 %42
}

; Function Attrs: mustprogress nounwind uwtable
define available_externally noundef i32 @_ZNKSt9basic_iosIcSt11char_traitsIcEE7rdstateEv(ptr noundef nonnull align 8 dereferenceable(264) %0) #1 align 2 {
  %2 = alloca ptr, align 8
  store ptr %0, ptr %2, align 8, !tbaa !50
  %3 = load ptr, ptr %2, align 8
  %4 = getelementptr inbounds nuw %"class.std::ios_base", ptr %3, i32 0, i32 5
  %5 = load i32, ptr %4, align 8, !tbaa !127
  ret i32 %5
}

; Function Attrs: mustprogress uwtable
define linkonce_odr void @_ZNSt5dequeIcSaIcEE9push_backEOc(ptr noundef nonnull align 8 dereferenceable(80) %0, ptr noundef nonnull align 1 dereferenceable(1) %1) #0 comdat align 2 {
  %3 = alloca ptr, align 8
  %4 = alloca ptr, align 8
  store ptr %0, ptr %3, align 8, !tbaa !48
  store ptr %1, ptr %4, align 8, !tbaa !68
  %5 = load ptr, ptr %3, align 8
  %6 = load ptr, ptr %4, align 8, !tbaa !68
  call void @_ZNSt5dequeIcSaIcEE12emplace_backIJcEEEvDpOT_(ptr noundef nonnull align 8 dereferenceable(80) %5, ptr noundef nonnull align 1 dereferenceable(1) %6)
  ret void
}

; Function Attrs: mustprogress nounwind uwtable
define linkonce_odr noundef signext i8 @_ZN4YAML6Stream3eofEv() #1 comdat align 2 {
  ret i8 4
}

; Function Attrs: mustprogress nounwind uwtable
define linkonce_odr noundef i64 @_ZNKSt5dequeIcSaIcEE4sizeEv(ptr noundef nonnull align 8 dereferenceable(80) %0) #1 comdat align 2 {
  %2 = alloca ptr, align 8
  store ptr %0, ptr %2, align 8, !tbaa !48
  %3 = load ptr, ptr %2, align 8
  %4 = getelementptr inbounds nuw %"class.std::_Deque_base", ptr %3, i32 0, i32 0
  %5 = getelementptr inbounds nuw %"struct.std::_Deque_base<char, std::allocator<char>>::_Deque_impl_data", ptr %4, i32 0, i32 3
  %6 = getelementptr inbounds nuw %"class.std::_Deque_base", ptr %3, i32 0, i32 0
  %7 = getelementptr inbounds nuw %"struct.std::_Deque_base<char, std::allocator<char>>::_Deque_impl_data", ptr %6, i32 0, i32 2
  %8 = call noundef i64 @_ZStmiRKSt15_Deque_iteratorIcRcPcES4_(ptr noundef nonnull align 8 dereferenceable(32) %5, ptr noundef nonnull align 8 dereferenceable(32) %7) #15
  ret i64 %8
}

; Function Attrs: mustprogress nounwind uwtable
define available_externally noundef zeroext i1 @_ZNKSt9basic_iosIcSt11char_traitsIcEE4goodEv(ptr noundef nonnull align 8 dereferenceable(264) %0) #1 align 2 {
  %2 = alloca ptr, align 8
  store ptr %0, ptr %2, align 8, !tbaa !50
  %3 = load ptr, ptr %2, align 8
  %4 = call noundef i32 @_ZNKSt9basic_iosIcSt11char_traitsIcEE7rdstateEv(ptr noundef nonnull align 8 dereferenceable(264) %3)
  %5 = icmp eq i32 %4, 0
  ret i1 %5
}

; Function Attrs: mustprogress uwtable
define noundef zeroext i1 @_ZNK4YAML6Stream12_ReadAheadToEm(ptr noundef nonnull align 8 dereferenceable(136) %0, i64 noundef %1) #0 align 2 {
  %3 = alloca ptr, align 8
  %4 = alloca i64, align 8
  %5 = alloca i8, align 1
  store ptr %0, ptr %3, align 8, !tbaa !3
  store i64 %1, ptr %4, align 8, !tbaa !54
  %6 = load ptr, ptr %3, align 8
  br label %7

7:                                                ; preds = %30, %2
  %8 = getelementptr inbounds nuw %"class.YAML::Stream", ptr %6, i32 0, i32 0
  %9 = load ptr, ptr %8, align 8, !tbaa !55
  %10 = load ptr, ptr %9, align 8, !tbaa !28
  %11 = getelementptr i8, ptr %10, i64 -24
  %12 = load i64, ptr %11, align 8
  %13 = getelementptr inbounds i8, ptr %9, i64 %12
  %14 = call noundef zeroext i1 @_ZNKSt9basic_iosIcSt11char_traitsIcEE4goodEv(ptr noundef nonnull align 8 dereferenceable(264) %13)
  br i1 %14, label %15, label %20

15:                                               ; preds = %7
  %16 = getelementptr inbounds nuw %"class.YAML::Stream", ptr %6, i32 0, i32 4
  %17 = call noundef i64 @_ZNKSt5dequeIcSaIcEE4sizeEv(ptr noundef nonnull align 8 dereferenceable(80) %16) #15
  %18 = load i64, ptr %4, align 8, !tbaa !54
  %19 = icmp ule i64 %17, %18
  br label %20

20:                                               ; preds = %15, %7
  %21 = phi i1 [ false, %7 ], [ %19, %15 ]
  br i1 %21, label %22, label %31

22:                                               ; preds = %20
  %23 = getelementptr inbounds nuw %"class.YAML::Stream", ptr %6, i32 0, i32 2
  %24 = load i32, ptr %23, align 4, !tbaa !10
  switch i32 %24, label %30 [
    i32 0, label %25
    i32 1, label %26
    i32 2, label %27
    i32 3, label %28
    i32 4, label %29
  ]

25:                                               ; preds = %22
  call void @_ZNK4YAML6Stream12StreamInUtf8Ev(ptr noundef nonnull align 8 dereferenceable(136) %6)
  br label %30

26:                                               ; preds = %22
  call void @_ZNK4YAML6Stream13StreamInUtf16Ev(ptr noundef nonnull align 8 dereferenceable(136) %6)
  br label %30

27:                                               ; preds = %22
  call void @_ZNK4YAML6Stream13StreamInUtf16Ev(ptr noundef nonnull align 8 dereferenceable(136) %6)
  br label %30

28:                                               ; preds = %22
  call void @_ZNK4YAML6Stream13StreamInUtf32Ev(ptr noundef nonnull align 8 dereferenceable(136) %6)
  br label %30

29:                                               ; preds = %22
  call void @_ZNK4YAML6Stream13StreamInUtf32Ev(ptr noundef nonnull align 8 dereferenceable(136) %6)
  br label %30

30:                                               ; preds = %22, %29, %28, %27, %26, %25
  br label %7, !llvm.loop !65

31:                                               ; preds = %20
  %32 = getelementptr inbounds nuw %"class.YAML::Stream", ptr %6, i32 0, i32 0
  %33 = load ptr, ptr %32, align 8, !tbaa !55
  %34 = load ptr, ptr %33, align 8, !tbaa !28
  %35 = getelementptr i8, ptr %34, i64 -24
  %36 = load i64, ptr %35, align 8
  %37 = getelementptr inbounds i8, ptr %33, i64 %36
  %38 = call noundef zeroext i1 @_ZNKSt9basic_iosIcSt11char_traitsIcEE4goodEv(ptr noundef nonnull align 8 dereferenceable(264) %37)
  br i1 %38, label %42, label %39

39:                                               ; preds = %31
  %40 = getelementptr inbounds nuw %"class.YAML::Stream", ptr %6, i32 0, i32 4
  call void @llvm.lifetime.start.p0(i64 1, ptr %5) #15
  %41 = call noundef signext i8 @_ZN4YAML6Stream3eofEv()
  store i8 %41, ptr %5, align 1, !tbaa !39
  call void @_ZNSt5dequeIcSaIcEE9push_backEOc(ptr noundef nonnull align 8 dereferenceable(80) %40, ptr noundef nonnull align 1 dereferenceable(1) %5)
  call void @llvm.lifetime.end.p0(i64 1, ptr %5) #15
  br label %42

42:                                               ; preds = %39, %31
  %43 = getelementptr inbounds nuw %"class.YAML::Stream", ptr %6, i32 0, i32 4
  %44 = call noundef i64 @_ZNKSt5dequeIcSaIcEE4sizeEv(ptr noundef nonnull align 8 dereferenceable(80) %43) #15
  %45 = load i64, ptr %4, align 8, !tbaa !54
  %46 = icmp ugt i64 %44, %45
  ret i1 %46
}