; Function Attrs: mustprogress uwtable
define noundef zeroext i1 @_ZNK4YAML6Stream12_ReadAheadToEm(ptr noundef nonnull align 8 dereferenceable(136) %0, i64 noundef %1) local_unnamed_addr #0 align 2 {
  %3 = alloca i8, align 1
  %4 = load ptr, ptr %0, align 8, !tbaa !57
  %5 = load ptr, ptr %4, align 8, !tbaa !22
  %6 = getelementptr i8, ptr %5, i64 -24
  %7 = load i64, ptr %6, align 8
  %8 = getelementptr inbounds i8, ptr %4, i64 %7
  %9 = getelementptr inbounds nuw i8, ptr %8, i64 32
  %10 = load i32, ptr %9, align 8, !tbaa !24
  %11 = icmp eq i32 %10, 0
  br i1 %11, label %.lr.ph, label %.critedge

.lr.ph:                                           ; preds = %2
  %12 = getelementptr inbounds nuw i8, ptr %0, i64 80
  %13 = getelementptr inbounds nuw i8, ptr %0, i64 48
  %14 = getelementptr inbounds nuw i8, ptr %0, i64 104
  %15 = getelementptr inbounds nuw i8, ptr %0, i64 72
  %16 = getelementptr inbounds nuw i8, ptr %0, i64 88
  %17 = getelementptr inbounds nuw i8, ptr %0, i64 64
  %18 = getelementptr inbounds nuw i8, ptr %0, i64 20
  br label %19

19:                                               ; preds = %.lr.ph, %48
  %20 = load ptr, ptr %14, align 8, !tbaa !45
  %21 = load ptr, ptr %15, align 8, !tbaa !45
  %22 = ptrtoint ptr %20 to i64
  %23 = ptrtoint ptr %21 to i64
  %24 = sub i64 %22, %23
  %25 = ashr exact i64 %24, 3
  %26 = icmp ne ptr %20, null
  %.neg.i.i = sext i1 %26 to i64
  %27 = add nsw i64 %25, %.neg.i.i
  %28 = shl nsw i64 %27, 9
  %29 = load ptr, ptr %12, align 8, !tbaa !46
  %30 = load ptr, ptr %16, align 8, !tbaa !47
  %31 = ptrtoint ptr %29 to i64
  %32 = ptrtoint ptr %30 to i64
  %33 = load ptr, ptr %17, align 8, !tbaa !48
  %34 = load ptr, ptr %13, align 8, !tbaa !46
  %35 = ptrtoint ptr %33 to i64
  %36 = ptrtoint ptr %34 to i64
  %37 = sub i64 %31, %32
  %38 = add i64 %37, %35
  %39 = add i64 %38, %28
  %40 = sub i64 %39, %36
  %.not = icmp ugt i64 %40, %1
  br i1 %.not, label %.critedge.thread, label %41

41:                                               ; preds = %19
  %42 = load i32, ptr %18, align 4, !tbaa !44
  switch i32 %42, label %48 [
    i32 0, label %43
    i32 1, label %44
    i32 2, label %45
    i32 3, label %46
    i32 4, label %47
  ]

43:                                               ; preds = %41
  tail call void @_ZNK4YAML6Stream12StreamInUtf8Ev(ptr noundef nonnull align 8 dereferenceable(136) %0)
  br label %48

44:                                               ; preds = %41
  tail call void @_ZNK4YAML6Stream13StreamInUtf16Ev(ptr noundef nonnull align 8 dereferenceable(136) %0)
  br label %48

45:                                               ; preds = %41
  tail call void @_ZNK4YAML6Stream13StreamInUtf16Ev(ptr noundef nonnull align 8 dereferenceable(136) %0)
  br label %48

46:                                               ; preds = %41
  tail call void @_ZNK4YAML6Stream13StreamInUtf32Ev(ptr noundef nonnull align 8 dereferenceable(136) %0)
  br label %48

47:                                               ; preds = %41
  tail call void @_ZNK4YAML6Stream13StreamInUtf32Ev(ptr noundef nonnull align 8 dereferenceable(136) %0)
  br label %48

48:                                               ; preds = %47, %46, %45, %44, %43, %41
  %49 = load ptr, ptr %0, align 8, !tbaa !57
  %50 = load ptr, ptr %49, align 8, !tbaa !22
  %51 = getelementptr i8, ptr %50, i64 -24
  %52 = load i64, ptr %51, align 8
  %53 = getelementptr inbounds i8, ptr %49, i64 %52
  %54 = getelementptr inbounds nuw i8, ptr %53, i64 32
  %55 = load i32, ptr %54, align 8, !tbaa !24
  %56 = icmp eq i32 %55, 0
  br i1 %56, label %19, label %.critedge, !llvm.loop !80

.critedge:                                        ; preds = %48, %2
  call void @llvm.lifetime.start.p0(i64 1, ptr nonnull %3) #16
  store i8 4, ptr %3, align 1, !tbaa !36
  %57 = getelementptr inbounds nuw i8, ptr %0, i64 80
  %58 = load ptr, ptr %57, align 8, !tbaa !81
  %59 = getelementptr inbounds nuw i8, ptr %0, i64 96
  %60 = load ptr, ptr %59, align 8, !tbaa !82
  %61 = getelementptr inbounds i8, ptr %60, i64 -1
  %.not.i.i = icmp eq ptr %58, %61
  br i1 %.not.i.i, label %65, label %62

62:                                               ; preds = %.critedge
  store i8 4, ptr %58, align 1, !tbaa !36
  %63 = load ptr, ptr %57, align 8, !tbaa !81
  %64 = getelementptr inbounds nuw i8, ptr %63, i64 1
  store ptr %64, ptr %57, align 8, !tbaa !81
  br label %_ZNSt5dequeIcSaIcEE9push_backEOc.exit

65:                                               ; preds = %.critedge
  %66 = getelementptr inbounds nuw i8, ptr %0, i64 32
  call void @_ZNSt5dequeIcSaIcEE16_M_push_back_auxIJcEEEvDpOT_(ptr noundef nonnull align 8 dereferenceable(80) %66, ptr noundef nonnull align 1 dereferenceable(1) %3)
  %.pre9.pre = load ptr, ptr %57, align 8, !tbaa !46
  br label %_ZNSt5dequeIcSaIcEE9push_backEOc.exit

_ZNSt5dequeIcSaIcEE9push_backEOc.exit:            ; preds = %62, %65
  %.pre9 = phi ptr [ %64, %62 ], [ %.pre9.pre, %65 ]
  call void @llvm.lifetime.end.p0(i64 1, ptr nonnull %3) #16
  %.phi.trans.insert = getelementptr inbounds nuw i8, ptr %0, i64 104
  %.pre = load ptr, ptr %.phi.trans.insert, align 8, !tbaa !45
  %.phi.trans.insert6 = getelementptr inbounds nuw i8, ptr %0, i64 72
  %.pre7 = load ptr, ptr %.phi.trans.insert6, align 8, !tbaa !45
  %.phi.trans.insert10 = getelementptr inbounds nuw i8, ptr %0, i64 88
  %.pre11 = load ptr, ptr %.phi.trans.insert10, align 8, !tbaa !47
  %.phi.trans.insert12 = getelementptr inbounds nuw i8, ptr %0, i64 64
  %.pre13 = load ptr, ptr %.phi.trans.insert12, align 8, !tbaa !48
  %.phi.trans.insert14 = getelementptr inbounds nuw i8, ptr %0, i64 48
  %.pre15 = load ptr, ptr %.phi.trans.insert14, align 8, !tbaa !46
  %.pre17 = ptrtoint ptr %.pre to i64
  %.pre18 = ptrtoint ptr %.pre7 to i64
  %.pre20 = sub i64 %.pre17, %.pre18
  %.pre22 = ashr exact i64 %.pre20, 3
  %.pre24 = ptrtoint ptr %.pre9 to i64
  %.pre26 = ptrtoint ptr %.pre11 to i64
  %.pre28 = ptrtoint ptr %.pre13 to i64
  %.pre30 = ptrtoint ptr %.pre15 to i64
  %.pre32 = sub i64 %.pre24, %.pre26
  %.pre34 = add i64 %.pre32, %.pre28
  br label %.critedge.thread

.critedge.thread:                                 ; preds = %19, %_ZNSt5dequeIcSaIcEE9push_backEOc.exit
  %.pre-phi35 = phi i64 [ %.pre34, %_ZNSt5dequeIcSaIcEE9push_backEOc.exit ], [ %38, %19 ]
  %.pre-phi31 = phi i64 [ %.pre30, %_ZNSt5dequeIcSaIcEE9push_backEOc.exit ], [ %36, %19 ]
  %.pre-phi23 = phi i64 [ %.pre22, %_ZNSt5dequeIcSaIcEE9push_backEOc.exit ], [ %25, %19 ]
  %67 = phi ptr [ %.pre, %_ZNSt5dequeIcSaIcEE9push_backEOc.exit ], [ %20, %19 ]
  %68 = icmp ne ptr %67, null
  %.neg.i.i2 = sext i1 %68 to i64
  %69 = add nsw i64 %.pre-phi23, %.neg.i.i2
  %70 = shl nsw i64 %69, 9
  %71 = add i64 %.pre-phi35, %70
  %72 = sub i64 %71, %.pre-phi31
  %73 = icmp ugt i64 %72, %1
  ret i1 %73
}